(lp1
S'http://cd.fangjia.com/ershoufang/--r-%E6%B8%A9%E6%B1%9F|b-%E5%85%AC%E5%B9%B3%E9%95%87'
p2
aS'http://cd.fangjia.com/ershoufang/--r-%E6%B8%A9%E6%B1%9F|b-%E6%B8%A9%E6%B1%9F'
p3
aS'http://cd.fangjia.com/ershoufang/--r-%E6%B8%A9%E6%B1%9F|b-%E6%B0%B8%E5%AE%81%E9%95%87'
p4
aS'http://cd.fangjia.com/ershoufang/--r-%E6%B8%A9%E6%B1%9F|b-%E8%B8%8F%E6%B0%B4%E9%95%87'
p5
aS'http://cd.fangjia.com/ershoufang/--r-%E6%B8%A9%E6%B1%9F|b-%E4%B8%87%E6%98%A5%E9%95%87'
p6
aS'http://cd.fangjia.com/ershoufang/--r-%E6%B8%A9%E6%B1%9F|b-%E6%B8%A9%E6%B1%9F%E5%9F%8E%E5%8C%BA'
p7
aS'http://cd.fangjia.com/ershoufang/--r-%E6%B8%A9%E6%B1%9F|b-%E9%87%91%E9%A9%AC%E9%95%87'
p8
aS'http://cd.fangjia.com/ershoufang/--r-%E6%B8%A9%E6%B1%9F|b-%E5%8C%97%E9%83%A8%E6%96%B0%E5%9F%8E'
p9
aS'http://cd.fangjia.com/ershoufang/--r-%E6%B8%A9%E6%B1%9F|b-%E5%8D%97%E7%86%8F%E5%A4%A7%E9%81%93'
p10
aS'http://cd.fangjia.com/ershoufang/--r-%E6%B8%A9%E6%B1%9F|b-%E5%85%89%E5%8D%8E%E5%A4%A7%E9%81%93'
p11
aS'http://cd.fangjia.com/ershoufang/--r-%E5%8F%8C%E6%B5%81|b-%E8%88%AA%E7%A9%BA%E6%B8%AF'
p12
aS'http://cd.fangjia.com/ershoufang/--r-%E5%8F%8C%E6%B5%81|b-%E5%8F%8C%E6%B5%81'
p13
aS'http://cd.fangjia.com/ershoufang/--r-%E5%8F%8C%E6%B5%81|b-%E5%8D%8E%E9%98%B3%E9%95%87'
p14
aS'http://cd.fangjia.com/ershoufang/--r-%E9%83%AB%E5%8E%BF|b-%E7%8A%80%E6%B5%A6'
p15
aS'http://cd.fangjia.com/ershoufang/--r-%E9%83%AB%E5%8E%BF|b-%E5%AE%89%E9%9D%96'
p16
aS'http://cd.fangjia.com/ershoufang/--r-%E9%87%91%E7%89%9B|b-%E6%9D%8E%E5%AE%B6%E6%B2%B1'
p17
aS'http://cd.fangjia.com/ershoufang/--r-%E9%87%91%E7%89%9B|b-%E8%9C%80%E6%B1%89%E8%B7%AF'
p18
aS'http://cd.fangjia.com/ershoufang/--r-%E9%87%91%E7%89%9B|b-%E8%8C%B6%E5%BA%97%E5%AD%90'
p19
aS'http://cd.fangjia.com/ershoufang/--r-%E9%87%91%E7%89%9B|b-%E4%BA%A4%E5%A4%A7%E8%B7%AF'
p20
aS'http://cd.fangjia.com/ershoufang/--r-%E9%87%91%E7%89%9B|b-%E9%BB%84%E5%BF%A0'
p21
aS'http://cd.fangjia.com/ershoufang/--r-%E9%87%91%E7%89%9B|b-%E8%8A%B1%E7%89%8C%E5%9D%8A'
p22
aS'http://cd.fangjia.com/ershoufang/--r-%E9%87%91%E7%89%9B|b-%E8%90%A5%E9%97%A8%E5%8F%A3'
p23
aS'http://cd.fangjia.com/ershoufang/--r-%E9%87%91%E7%89%9B|b-%E4%B9%9D%E9%87%8C%E5%A0%A4'
p24
aS'http://cd.fangjia.com/ershoufang/--r-%E9%87%91%E7%89%9B|b-%E9%A9%AC%E9%9E%8D%E8%B7%AF'
p25
aS'http://cd.fangjia.com/ershoufang/--r-%E9%87%91%E7%89%9B|b-%E6%B2%99%E6%B2%B3%E6%BA%90'
p26
aS'http://cd.fangjia.com/ershoufang/--r-%E9%87%91%E7%89%9B|b-%E6%8A%9A%E7%90%B4%E5%B0%8F%E5%8C%BA'
p27
aS'http://cd.fangjia.com/ershoufang/--r-%E9%87%91%E7%89%9B|b-%E6%B2%99%E6%B9%BE%E4%BC%9A%E5%B1%95'
p28
aS'http://cd.fangjia.com/ershoufang/--r-%E9%87%91%E7%89%9B|b-%E8%8D%B7%E8%8A%B1%E6%B1%A0'
p29
aS'http://cd.fangjia.com/ershoufang/--r-%E9%94%A6%E6%B1%9F|b-%E9%BE%99%E8%88%9F%E8%B7%AF'
p30
aS'http://cd.fangjia.com/ershoufang/--r-%E9%94%A6%E6%B1%9F|b-%E6%B5%B7%E6%A4%92%E5%B8%82'
p31
aS'http://cd.fangjia.com/ershoufang/--r-%E9%94%A6%E6%B1%9F|b-%E7%BA%A2%E6%98%9F%E8%B7%AF'
p32
aS'http://cd.fangjia.com/ershoufang/--r-%E9%94%A6%E6%B1%9F|b-%E4%B8%89%E5%9C%A3%E4%B9%A1'
p33
aS'http://cd.fangjia.com/ershoufang/--r-%E9%94%A6%E6%B1%9F|b-%E4%B9%9D%E7%9C%BC%E6%A1%A5'
p34
aS'http://cd.fangjia.com/ershoufang/--r-%E9%94%A6%E6%B1%9F|b-%E6%98%A5%E7%86%99%E8%B7%AF'
p35
aS'http://cd.fangjia.com/ershoufang/--r-%E9%94%A6%E6%B1%9F|b-%E8%8E%B2%E6%A1%82%E8%B7%AF'
p36
aS'http://cd.fangjia.com/ershoufang/--r-%E9%94%A6%E6%B1%9F|b-%E7%89%9B%E7%8E%8B%E5%BA%99'
p37
aS'http://cd.fangjia.com/ershoufang/--r-%E9%94%A6%E6%B1%9F|b-%E7%9B%90%E5%B8%82%E5%8F%A3'
p38
aS'http://cd.fangjia.com/ershoufang/--r-%E9%94%A6%E6%B1%9F|b-%E7%89%9B%E5%B8%82%E5%8F%A3'
p39
aS'http://cd.fangjia.com/ershoufang/--r-%E9%94%A6%E6%B1%9F|b-%E6%BB%A8%E6%B1%9F%E8%B7%AF'
p40
aS'http://cd.fangjia.com/ershoufang/--r-%E9%94%A6%E6%B1%9F|b-%E5%B7%9D%E5%B8%88'
p41
aS'http://cd.fangjia.com/ershoufang/--r-%E9%94%A6%E6%B1%9F|b-%E6%96%B0%E5%8D%97%E9%97%A8'
p42
aS'http://cd.fangjia.com/ershoufang/--r-%E9%94%A6%E6%B1%9F|b-%E6%88%90%E4%BB%81%E8%B7%AF'
p43
aS'http://cd.fangjia.com/ershoufang/--r-%E9%BE%99%E6%B3%89%E9%A9%BF|b-%E9%BE%99%E6%B3%89%E9%A9%BF'
p44
aS'http://cd.fangjia.com/ershoufang/--r-%E9%BE%99%E6%B3%89%E9%A9%BF|b-%E6%B4%AA%E6%B2%B3%E9%95%87'
p45
aS'http://cd.fangjia.com/ershoufang/--r-%E9%BE%99%E6%B3%89%E9%A9%BF|b-%E9%98%B3%E5%85%89%E5%9F%8E'
p46
aS'http://cd.fangjia.com/ershoufang/--r-%E9%BE%99%E6%B3%89%E9%A9%BF|b-%E5%8D%81%E9%99%B5%E9%95%87'
p47
aS'http://cd.fangjia.com/ershoufang/--r-%E6%96%B0%E9%83%BD|b-%E6%96%B0%E9%83%BD%E4%B8%BB%E5%9F%8E%E5%8C%BA'
p48
aS'http://cd.fangjia.com/ershoufang/--r-%E6%96%B0%E9%83%BD|b-%E5%A4%A7%E4%B8%B0%E9%95%87'
p49
aS'http://cd.fangjia.com/ershoufang/--r-%E6%88%90%E5%8D%8E|b-%E6%96%B0%E9%B8%BF%E8%B7%AF'
p50
aS'http://cd.fangjia.com/ershoufang/--r-%E6%88%90%E5%8D%8E|b-%E6%96%B0%E5%8D%8E%E5%85%AC%E5%9B%AD'
p51
aS'http://cd.fangjia.com/ershoufang/--r-%E6%88%90%E5%8D%8E|b-%E6%88%90%E6%B8%9D%E7%AB%8B%E4%BA%A4'
p52
aS'http://cd.fangjia.com/ershoufang/--r-%E6%88%90%E5%8D%8E|b-%E5%85%AB%E9%87%8C%E5%B0%8F%E5%8C%BA'
p53
aS'http://cd.fangjia.com/ershoufang/--r-%E6%88%90%E5%8D%8E|b-%E4%BA%94%E6%A1%82%E6%A1%A5'
p54
aS'http://cd.fangjia.com/ershoufang/--r-%E6%88%90%E5%8D%8E|b-%E7%94%B5%E5%AD%90%E7%A7%91%E5%A4%A7'
p55
aS'http://cd.fangjia.com/ershoufang/--r-%E6%88%90%E5%8D%8E|b-%E9%A9%B7%E9%A9%AC%E6%A1%A5'
p56
aS'http://cd.fangjia.com/ershoufang/--r-%E6%88%90%E5%8D%8E|b-%E5%8F%8C%E6%A1%A5%E5%AD%90'
p57
aS'http://cd.fangjia.com/ershoufang/--r-%E6%88%90%E5%8D%8E|b-%E6%A7%90%E6%A0%91%E5%BA%97'
p58
aS'http://cd.fangjia.com/ershoufang/--r-%E6%88%90%E5%8D%8E|b-%E7%8C%9B%E8%BF%BD%E6%B9%BE'
p59
aS'http://cd.fangjia.com/ershoufang/--r-%E6%88%90%E5%8D%8E|b-%E4%B8%87%E5%B9%B4%E5%9C%BA'
p60
aS'http://cd.fangjia.com/ershoufang/--r-%E6%88%90%E5%8D%8E|b-%E5%BB%BA%E8%AE%BE%E8%B7%AF'
p61
aS'http://cd.fangjia.com/ershoufang/--r-%E6%88%90%E5%8D%8E|b-%E5%8D%81%E9%87%8C%E5%BA%97'
p62
aS'http://cd.fangjia.com/ershoufang/--r-%E6%88%90%E5%8D%8E|b-%E7%8E%89%E5%8F%8C%E8%B7%AF'
p63
aS'http://cd.fangjia.com/ershoufang/--r-%E9%9D%92%E7%BE%8A|b-%E5%85%AB%E5%AE%9D%E8%A1%97'
p64
aS'http://cd.fangjia.com/ershoufang/--r-%E9%9D%92%E7%BE%8A|b-%E9%95%BF%E9%A1%BA%E8%A1%97'
p65
aS'http://cd.fangjia.com/ershoufang/--r-%E9%9D%92%E7%BE%8A|b-%E5%A4%96%E9%87%91%E6%B2%99'
p66
aS'http://cd.fangjia.com/ershoufang/--r-%E9%9D%92%E7%BE%8A|b-%E7%99%BE%E8%8A%B1%E4%B8%AD%E5%BF%83%E7%AB%99'
p67
aS'http://cd.fangjia.com/ershoufang/--r-%E9%9D%92%E7%BE%8A|b-%E6%B5%A3%E8%8A%B1%E5%B0%8F%E5%8C%BA'
p68
aS'http://cd.fangjia.com/ershoufang/--r-%E9%9D%92%E7%BE%8A|b-%E9%9D%92%E7%BE%8A%E5%B0%8F%E5%8C%BA'
p69
aS'http://cd.fangjia.com/ershoufang/--r-%E9%9D%92%E7%BE%8A|b-%E5%86%85%E9%87%91%E6%B2%99'
p70
aS'http://cd.fangjia.com/ershoufang/--r-%E9%9D%92%E7%BE%8A|b-%E9%A1%BA%E5%9F%8E%E8%A1%97'
p71
aS'http://cd.fangjia.com/ershoufang/--r-%E9%9D%92%E7%BE%8A|b-%E5%BA%9C%E5%8D%97%E6%96%B0%E5%8C%BA'
p72
aS'http://cd.fangjia.com/ershoufang/--r-%E9%9D%92%E7%BE%8A|b-%E5%85%89%E5%8D%8E'
p73
aS'http://cd.fangjia.com/ershoufang/--r-%E9%9D%92%E7%BE%8A|b-%E8%A5%BF%E5%8D%97%E8%B4%A2%E5%A4%A7'
p74
aS'http://cd.fangjia.com/ershoufang/--r-%E9%9D%92%E7%BE%8A|b-%E6%9D%9C%E7%94%AB%E8%8D%89%E5%A0%82'
p75
aS'http://cd.fangjia.com/ershoufang/--r-%E9%9D%92%E7%BE%8A|b-%E8%B4%9D%E6%A3%AE'
p76
aS'http://cd.fangjia.com/ershoufang/--r-%E9%9D%92%E7%BE%8A|b-%E5%A4%A9%E5%BA%9C%E5%B9%BF%E5%9C%BA'
p77
aS'http://cd.fangjia.com/ershoufang/--r-%E9%9D%92%E7%BE%8A|b-%E8%8D%89%E5%B8%82%E8%A1%97'
p78
aS'http://cd.fangjia.com/ershoufang/--r-%E6%AD%A6%E4%BE%AF|b-%E8%88%AA%E7%A9%BA%E8%B7%AF'
p79
aS'http://cd.fangjia.com/ershoufang/--r-%E6%AD%A6%E4%BE%AF|b-%E7%BA%A2%E7%89%8C%E6%A5%BC'
p80
aS'http://cd.fangjia.com/ershoufang/--r-%E6%AD%A6%E4%BE%AF|b-%E8%B7%B3%E4%BC%9E%E5%A1%94'
p81
aS'http://cd.fangjia.com/ershoufang/--r-%E6%AD%A6%E4%BE%AF|b-%E6%B8%85%E6%B0%B4%E6%B2%B3'
p82
aS'http://cd.fangjia.com/ershoufang/--r-%E6%AD%A6%E4%BE%AF|b-%E5%A4%96%E5%8F%8C%E6%A5%A0'
p83
aS'http://cd.fangjia.com/ershoufang/--r-%E6%AD%A6%E4%BE%AF|b-%E5%86%85%E5%8F%8C%E6%A5%A0'
p84
aS'http://cd.fangjia.com/ershoufang/--r-%E6%AD%A6%E4%BE%AF|b-%E9%AB%98%E5%8D%87%E6%A1%A5'
p85
aS'http://cd.fangjia.com/ershoufang/--r-%E6%AD%A6%E4%BE%AF|b-%E7%8E%89%E6%9E%97'
p86
aS'http://cd.fangjia.com/ershoufang/--r-%E6%AD%A6%E4%BE%AF|b-%E6%AD%A6%E4%BE%AF%E7%A5%A0%E5%A4%A7%E8%A1%97'
p87
aS'http://cd.fangjia.com/ershoufang/--r-%E6%AD%A6%E4%BE%AF|b-%E6%9C%BA%E6%8A%95%E9%95%87'
p88
aS'http://cd.fangjia.com/ershoufang/--r-%E6%AD%A6%E4%BE%AF|b-%E7%81%AB%E8%BD%A6%E5%8D%97%E7%AB%99'
p89
aS'http://cd.fangjia.com/ershoufang/--r-%E6%AD%A6%E4%BE%AF|b-%E6%A1%90%E6%A2%93%E6%9E%97'
p90
aS'http://cd.fangjia.com/ershoufang/--r-%E6%AD%A6%E4%BE%AF|b-%E7%A3%A8%E5%AD%90%E6%A1%A5'
p91
aS'http://cd.fangjia.com/ershoufang/--r-%E6%AD%A6%E4%BE%AF|b-%E4%BA%BA%E6%B0%91%E5%8D%97%E8%B7%AF'
p92
a.